target datalayout = "e-m:e-p270:32:32-p271:32:32-p272:64:64-i64:64-i128:128-f80:128-n8:16:32:64-S128"
target triple = "x86_64-pc-linux-gnu"

%struct.H5F_t = type { ptr, ptr, ptr, ptr, i32, ptr, i8, i8, ptr, i32 }
%struct.H5F_shared_t = type { ptr, ptr, ptr, i8, i32, i32, %struct.H5F_mtab_t, ptr, i8, i8, i64, i32, i32, i64, i64, ptr, ptr, %struct.H5AC_cache_config_t, %struct.H5AC_cache_image_config_t, i8, i8, ptr, i64, i32, i8, i64, i64, double, i64, i64, i64, i32, i32, i32, i8, i32, ptr, ptr, ptr, ptr, i8, i8, i8, i64, i64, ptr, ptr, i32, i64, i8, i32, i8, i64, i8, [13 x i32], [13 x i64], [13 x ptr], i8, i64, i64, [7 x i32], [7 x i32], %struct.H5F_blk_aggr_t, %struct.H5F_blk_aggr_t, i64, i64, %struct.H5F_meta_accum_t, i32, i32, [30 x ptr], %struct.H5F_object_flush_t, i8, ptr }
%struct.H5F_mtab_t = type { i32, i32, ptr }
%struct.H5AC_cache_config_t = type { i32, i8, i8, i8, [1025 x i8], i8, i8, i64, double, i64, i64, i64, i32, double, double, i8, i64, i32, double, double, i32, double, double, i8, i64, i32, i8, double, i64, i32 }
%struct.H5AC_cache_image_config_t = type { i32, i8, i8, i32 }
%struct.H5F_blk_aggr_t = type { i64, i64, i64, i64, i64 }
%struct.H5F_meta_accum_t = type { ptr, i64, i64, i64, i64, i64, i8 }
%struct.H5F_object_flush_t = type { ptr, ptr }

@.str.2 = private unnamed_addr constant [100 x i8] c"generated/home/dtcxzyw/WorkSpace/Projects/compilers/llvm-opt-benchmark/bench/hdf5/hdf5/src/H5Fint.c\00", align 1
@H5E_RESOURCE_g = external global i64, align 8
@H5E_NOSPACE_g = external global i64, align 8
@.str.64 = private unnamed_addr constant [25 x i8] c"memory allocation failed\00", align 1
@__func__.H5F_track_metadata_read_retries = private unnamed_addr constant [32 x i8] c"H5F_track_metadata_read_retries\00", align 1

; Function Attrs: nounwind uwtable
define i32 @H5F_track_metadata_read_retries(ptr noundef %0, i32 noundef %1, i32 noundef %2) #0 {
  %4 = alloca ptr, align 8
  %5 = alloca i32, align 4
  %6 = alloca i32, align 4
  %7 = alloca i32, align 4
  %8 = alloca double, align 8
  %9 = alloca i32, align 4
  %10 = alloca i8, align 1
  store ptr %0, ptr %4, align 8
  store i32 %1, ptr %5, align 4
  store i32 %2, ptr %6, align 4
  store i32 0, ptr %9, align 4
  store i8 0, ptr %10, align 1
  %11 = load ptr, ptr %4, align 8
  %12 = getelementptr inbounds %struct.H5F_t, ptr %11, i32 0, i32 2
  %13 = load ptr, ptr %12, align 8
  %14 = getelementptr inbounds %struct.H5F_shared_t, ptr %13, i32 0, i32 69
  %15 = load i32, ptr %5, align 4
  %16 = zext i32 %15 to i64
  %17 = getelementptr inbounds [30 x ptr], ptr %14, i64 0, i64 %16
  %18 = load ptr, ptr %17, align 8
  %19 = icmp eq ptr null, %18
  br i1 %19, label %20, label %53

20:                                               ; preds = %3
  %21 = load ptr, ptr %4, align 8
  %22 = getelementptr inbounds %struct.H5F_t, ptr %21, i32 0, i32 2
  %23 = load ptr, ptr %22, align 8
  %24 = getelementptr inbounds %struct.H5F_shared_t, ptr %23, i32 0, i32 68
  %25 = load i32, ptr %24, align 4
  %26 = zext i32 %25 to i64
  %27 = mul i64 %26, 4
  %28 = call noalias ptr @calloc(i64 noundef 1, i64 noundef %27) #13
  %29 = load ptr, ptr %4, align 8
  %30 = getelementptr inbounds %struct.H5F_t, ptr %29, i32 0, i32 2
  %31 = load ptr, ptr %30, align 8
  %32 = getelementptr inbounds %struct.H5F_shared_t, ptr %31, i32 0, i32 69
  %33 = load i32, ptr %5, align 4
  %34 = zext i32 %33 to i64
  %35 = getelementptr inbounds [30 x ptr], ptr %32, i64 0, i64 %34
  store ptr %28, ptr %35, align 8
  %36 = icmp eq ptr null, %28
  br i1 %36, label %37, label %52

37:                                               ; preds = %20
  br label %38

38:                                               ; preds = %37
  br label %39

39:                                               ; preds = %38
  br label %40

40:                                               ; preds = %39
  %41 = load i64, ptr @H5E_RESOURCE_g, align 8
  %42 = load i64, ptr @H5E_NOSPACE_g, align 8
  %43 = call i32 (ptr, ptr, i32, i64, i64, ptr, ...) @H5E_printf_stack(ptr noundef @.str.2, ptr noundef @__func__.H5F_track_metadata_read_retries, i32 noundef 3393, i64 noundef %41, i64 noundef %42, ptr noundef @.str.64)
  br label %44

44:                                               ; preds = %40
  store i8 1, ptr %10, align 1
  %45 = load i8, ptr %10, align 1
  %46 = trunc i8 %45 to i1
  %47 = zext i1 %46 to i8
  store i8 %47, ptr %10, align 1
  br label %48

48:                                               ; preds = %44
  br label %49

49:                                               ; preds = %48
  store i32 -1, ptr %9, align 4
  br label %72

50:                                               ; No predecessors!
  br label %51

51:                                               ; preds = %50
  br label %52

52:                                               ; preds = %51, %20
  br label %53

53:                                               ; preds = %52, %3
  %54 = load i32, ptr %6, align 4
  %55 = uitofp i32 %54 to double
  %56 = call double @log10(double noundef %55) #10
  store double %56, ptr %8, align 8
  %57 = load double, ptr %8, align 8
  %58 = fptoui double %57 to i32
  store i32 %58, ptr %7, align 4
  %59 = load ptr, ptr %4, align 8
  %60 = getelementptr inbounds %struct.H5F_t, ptr %59, i32 0, i32 2
  %61 = load ptr, ptr %60, align 8
  %62 = getelementptr inbounds %struct.H5F_shared_t, ptr %61, i32 0, i32 69
  %63 = load i32, ptr %5, align 4
  %64 = zext i32 %63 to i64
  %65 = getelementptr inbounds [30 x ptr], ptr %62, i64 0, i64 %64
  %66 = load ptr, ptr %65, align 8
  %67 = load i32, ptr %7, align 4
  %68 = zext i32 %67 to i64
  %69 = getelementptr inbounds i32, ptr %66, i64 %68
  %70 = load i32, ptr %69, align 4
  %71 = add i32 %70, 1
  store i32 %71, ptr %69, align 4
  br label %72

72:                                               ; preds = %53, %49
  %73 = load i32, ptr %9, align 4
  ret i32 %73
}