; Function Attrs: nounwind uwtable
define range(i32 -1, 1) i32 @H5F_track_metadata_read_retries(ptr nocapture noundef readonly %0, i32 noundef %1, i32 noundef %2) local_unnamed_addr #0 {
  %4 = getelementptr inbounds i8, ptr %0, i64 16
  %5 = load ptr, ptr %4, align 8
  %6 = getelementptr inbounds i8, ptr %5, i64 2064
  %7 = zext i32 %1 to i64
  %8 = getelementptr inbounds [30 x ptr], ptr %6, i64 0, i64 %7
  %9 = load ptr, ptr %8, align 8
  %10 = icmp eq ptr %9, null
  br i1 %10, label %11, label %22

11:                                               ; preds = %3
  %12 = getelementptr inbounds i8, ptr %5, i64 2060
  %13 = load i32, ptr %12, align 4
  %14 = zext i32 %13 to i64
  %15 = shl nuw nsw i64 %14, 2
  %16 = tail call noalias ptr @calloc(i64 noundef 1, i64 noundef %15) #25
  store ptr %16, ptr %8, align 8
  %17 = icmp eq ptr %16, null
  br i1 %17, label %18, label %22

18:                                               ; preds = %11
  %19 = load i64, ptr @H5E_RESOURCE_g, align 8
  %20 = load i64, ptr @H5E_NOSPACE_g, align 8
  %21 = tail call i32 (ptr, ptr, i32, i64, i64, ptr, ...) @H5E_printf_stack(ptr noundef nonnull @.str.2, ptr noundef nonnull @__func__.H5F_track_metadata_read_retries, i32 noundef 3393, i64 noundef %19, i64 noundef %20, ptr noundef nonnull @.str.64) #22
  br label %34

22:                                               ; preds = %11, %3
  %23 = uitofp i32 %2 to double
  %24 = tail call double @log10(double noundef %23) #22
  %25 = fptoui double %24 to i32
  %26 = load ptr, ptr %4, align 8
  %27 = getelementptr inbounds i8, ptr %26, i64 2064
  %28 = getelementptr inbounds [30 x ptr], ptr %27, i64 0, i64 %7
  %29 = load ptr, ptr %28, align 8
  %30 = zext i32 %25 to i64
  %31 = getelementptr inbounds i32, ptr %29, i64 %30
  %32 = load i32, ptr %31, align 4
  %33 = add i32 %32, 1
  store i32 %33, ptr %31, align 4
  br label %34

34:                                               ; preds = %22, %18
  %.0 = phi i32 [ -1, %18 ], [ 0, %22 ]
  ret i32 %.0
}